; Function Attrs: null_pointer_is_valid sspstrong uwtable
define internal i32 @glusterfs_gfs4_0_op_readdir_reply(ptr noundef %0, ptr noundef %1, ptr noundef %2, ptr readnone captures(none) %3) #0 {
  %5 = load i32, ptr @hf_glusterfs_entries, align 4
  %6 = tail call i32 @dissect_rpc_uint32(ptr noundef %0, ptr noundef %2, i32 noundef %5, i32 noundef 0)
  %7 = tail call i32 @tvb_get_ntohl(ptr noundef %0, i32 noundef %6)
  %8 = load i32, ptr @hf_gluster_op_errno, align 4
  %9 = tail call ptr @proto_tree_add_int(ptr noundef %2, i32 noundef %8, ptr noundef %0, i32 noundef %6, i32 noundef 4, i32 noundef %7)
  switch i32 %7, label %_glusterfs_gfs3_common_readdir_reply.exit [
    i32 0, label %.sink.split.i
    i32 2, label %10
  ]

10:                                               ; preds = %4
  br label %.sink.split.i

.sink.split.i:                                    ; preds = %10, %4
  %.str.566.sink.i = phi ptr [ @.str.566, %10 ], [ @.str.565, %4 ]
  tail call void (ptr, ptr, ...) @proto_item_append_text(ptr noundef %9, ptr noundef nonnull %.str.566.sink.i)
  br label %_glusterfs_gfs3_common_readdir_reply.exit

_glusterfs_gfs3_common_readdir_reply.exit:        ; preds = %4, %.sink.split.i
  %11 = add i32 %6, 4
  %12 = load i32, ptr @hf_glusterfs_dict, align 4
  %13 = tail call fastcc i32 @gluster_rpc4_0_dissect_dict(ptr noundef %2, ptr noundef %0, i32 noundef %12, i32 noundef %11)
  %14 = tail call i32 @dissect_rpc_list(ptr noundef %0, ptr noundef %1, ptr noundef %2, i32 noundef %13, ptr noundef nonnull @glusterfs_gfs4_0_op_readdir_entry, ptr noundef null)
  ret i32 %14
}